; Function Attrs: null_pointer_is_valid sspstrong uwtable
define internal void @free_someip_parameter_union_cb(ptr noundef captures(none) %0) #0 {
  %2 = getelementptr inbounds nuw i8, ptr %0, i64 8
  %3 = load ptr, ptr %2, align 8
  %.not = icmp eq ptr %3, null
  br i1 %.not, label %5, label %4

4:                                                ; preds = %1
  tail call void @g_free(ptr noundef nonnull %3)
  store ptr null, ptr %2, align 8
  br label %5

5:                                                ; preds = %4, %1
  %6 = getelementptr inbounds nuw i8, ptr %0, i64 40
  %7 = load ptr, ptr %6, align 8
  %.not12 = icmp eq ptr %7, null
  br i1 %.not12, label %9, label %8

8:                                                ; preds = %5
  tail call void @g_free(ptr noundef nonnull %7)
  store ptr null, ptr %6, align 8
  br label %9

9:                                                ; preds = %8, %5
  %10 = getelementptr inbounds nuw i8, ptr %0, i64 56
  %11 = load ptr, ptr %10, align 8
  %.not13 = icmp eq ptr %11, null
  br i1 %.not13, label %13, label %12

12:                                               ; preds = %9
  tail call void @g_free(ptr noundef nonnull %11)
  store ptr null, ptr %10, align 8
  br label %13

13:                                               ; preds = %12, %9
  ret void
}